target datalayout = "e-m:e-p270:32:32-p271:32:32-p272:64:64-i64:64-i128:128-f80:128-n8:16:32:64-S128"
target triple = "x86_64-pc-linux-gnu"

%struct.Vec_Int_t_ = type { i32, i32, ptr }

@.str = private unnamed_addr constant [4 x i8] c"%s\0A\00", align 1

; Function Attrs: inlinehint nounwind uwtable
define internal i32 @Abc_Lit2Var(i32 noundef %0) #2 {
  %2 = alloca i32, align 4
  store i32 %0, ptr %2, align 4, !tbaa !12
  %3 = load i32, ptr %2, align 4, !tbaa !12
  %4 = ashr i32 %3, 1
  ret i32 %4
}

; Function Attrs: inlinehint nounwind uwtable
define internal i32 @Abc_LitIsCompl(i32 noundef %0) #2 {
  %2 = alloca i32, align 4
  store i32 %0, ptr %2, align 4, !tbaa !12
  %3 = load i32, ptr %2, align 4, !tbaa !12
  %4 = and i32 %3, 1
  ret i32 %4
}

; Function Attrs: inlinehint nounwind uwtable
define internal i32 @Vec_IntEntry(ptr noundef %0, i32 noundef %1) #2 {
  %3 = alloca ptr, align 8
  %4 = alloca i32, align 4
  store ptr %0, ptr %3, align 8, !tbaa !10
  store i32 %1, ptr %4, align 4, !tbaa !12
  %5 = load ptr, ptr %3, align 8, !tbaa !10
  %6 = getelementptr inbounds nuw %struct.Vec_Int_t_, ptr %5, i32 0, i32 2
  %7 = load ptr, ptr %6, align 8, !tbaa !24
  %8 = load i32, ptr %4, align 4, !tbaa !12
  %9 = sext i32 %8 to i64
  %10 = getelementptr inbounds i32, ptr %7, i64 %9
  %11 = load i32, ptr %10, align 4, !tbaa !12
  ret i32 %11
}

; Function Attrs: inlinehint nounwind uwtable
define internal i32 @Vec_IntSize(ptr noundef %0) #2 {
  %2 = alloca ptr, align 8
  store ptr %0, ptr %2, align 8, !tbaa !10
  %3 = load ptr, ptr %2, align 8, !tbaa !10
  %4 = getelementptr inbounds nuw %struct.Vec_Int_t_, ptr %3, i32 0, i32 1
  %5 = load i32, ptr %4, align 4, !tbaa !21
  ret i32 %5
}

; Function Attrs: nounwind uwtable
define i64 @Sbd_ManSolverSupp(ptr noundef %0, ptr noundef %1, ptr noundef %2) #0 {
  %4 = alloca ptr, align 8
  %5 = alloca ptr, align 8
  %6 = alloca ptr, align 8
  %7 = alloca i64, align 8
  %8 = alloca i32, align 4
  %9 = alloca i32, align 4
  %10 = alloca i32, align 4
  store ptr %0, ptr %4, align 8, !tbaa !10
  store ptr %1, ptr %5, align 8, !tbaa !45
  store ptr %2, ptr %6, align 8, !tbaa !45
  call void @llvm.lifetime.start.p0(i64 8, ptr %7) #8
  store i64 0, ptr %7, align 8, !tbaa !42
  call void @llvm.lifetime.start.p0(i64 4, ptr %8) #8
  call void @llvm.lifetime.start.p0(i64 4, ptr %9) #8
  call void @llvm.lifetime.start.p0(i64 4, ptr %10) #8
  store i32 0, ptr %10, align 4, !tbaa !12
  store i32 0, ptr %8, align 4, !tbaa !12
  br label %11

11:                                               ; preds = %49, %3
  %12 = load i32, ptr %8, align 4, !tbaa !12
  %13 = load ptr, ptr %4, align 8, !tbaa !10
  %14 = call i32 @Vec_IntSize(ptr noundef %13)
  %15 = icmp slt i32 %12, %14
  br i1 %15, label %16, label %20

16:                                               ; preds = %11
  %17 = load ptr, ptr %4, align 8, !tbaa !10
  %18 = load i32, ptr %8, align 4, !tbaa !12
  %19 = call i32 @Vec_IntEntry(ptr noundef %17, i32 noundef %18)
  store i32 %19, ptr %9, align 4, !tbaa !12
  br label %20

20:                                               ; preds = %16, %11
  %21 = phi i1 [ false, %11 ], [ true, %16 ]
  br i1 %21, label %22, label %52

22:                                               ; preds = %20
  %23 = load i32, ptr %9, align 4, !tbaa !12
  %24 = icmp eq i32 %23, -1
  br i1 %24, label %25, label %26

25:                                               ; preds = %22
  br label %49

26:                                               ; preds = %22
  %27 = load i64, ptr %7, align 8, !tbaa !42
  %28 = load i32, ptr %9, align 4, !tbaa !12
  %29 = call i32 @Abc_Lit2Var(i32 noundef %28)
  %30 = zext i32 %29 to i64
  %31 = lshr i64 %27, %30
  %32 = and i64 %31, 1
  %33 = icmp ne i64 %32, 0
  br i1 %33, label %34, label %35

34:                                               ; preds = %26
  br label %49

35:                                               ; preds = %26
  %36 = load i32, ptr %10, align 4, !tbaa !12
  %37 = add nsw i32 %36, 1
  store i32 %37, ptr %10, align 4, !tbaa !12
  %38 = load ptr, ptr %5, align 8, !tbaa !45
  %39 = load i32, ptr %9, align 4, !tbaa !12
  %40 = call i32 @Abc_Lit2Var(i32 noundef %39)
  %41 = sext i32 %40 to i64
  %42 = getelementptr inbounds i32, ptr %38, i64 %41
  store i32 %36, ptr %42, align 4, !tbaa !12
  %43 = load i32, ptr %9, align 4, !tbaa !12
  %44 = call i32 @Abc_Lit2Var(i32 noundef %43)
  %45 = zext i32 %44 to i64
  %46 = shl i64 1, %45
  %47 = load i64, ptr %7, align 8, !tbaa !42
  %48 = or i64 %47, %46
  store i64 %48, ptr %7, align 8, !tbaa !42
  br label %49

49:                                               ; preds = %35, %34, %25
  %50 = load i32, ptr %8, align 4, !tbaa !12
  %51 = add nsw i32 %50, 1
  store i32 %51, ptr %8, align 4, !tbaa !12
  br label %11, !llvm.loop !67

52:                                               ; preds = %20
  %53 = load i32, ptr %10, align 4, !tbaa !12
  %54 = load ptr, ptr %6, align 8, !tbaa !45
  store i32 %53, ptr %54, align 4, !tbaa !12
  %55 = load i64, ptr %7, align 8, !tbaa !42
  call void @llvm.lifetime.end.p0(i64 4, ptr %10) #8
  call void @llvm.lifetime.end.p0(i64 4, ptr %9) #8
  call void @llvm.lifetime.end.p0(i64 4, ptr %8) #8
  call void @llvm.lifetime.end.p0(i64 8, ptr %7) #8
  ret i64 %55
}

; Function Attrs: nounwind uwtable
define void @Sbd_ManSolverPrint(ptr noundef %0) #0 {
  %2 = alloca ptr, align 8
  %3 = alloca i32, align 4
  %4 = alloca i32, align 4
  %5 = alloca i32, align 4
  %6 = alloca i32, align 4
  %7 = alloca [64 x i32], align 16
  %8 = alloca i64, align 8
  %9 = alloca [65 x i8], align 16
  store ptr %0, ptr %2, align 8, !tbaa !10
  call void @llvm.lifetime.start.p0(i64 4, ptr %3) #8
  call void @llvm.lifetime.start.p0(i64 4, ptr %4) #8
  call void @llvm.lifetime.start.p0(i64 4, ptr %5) #8
  call void @llvm.lifetime.start.p0(i64 4, ptr %6) #8
  call void @llvm.lifetime.start.p0(i64 256, ptr %7) #8
  call void @llvm.lifetime.start.p0(i64 8, ptr %8) #8
  %10 = load ptr, ptr %2, align 8, !tbaa !10
  %11 = getelementptr inbounds [64 x i32], ptr %7, i64 0, i64 0
  %12 = call i64 @Sbd_ManSolverSupp(ptr noundef %10, ptr noundef %11, ptr noundef %6)
  store i64 %12, ptr %8, align 8, !tbaa !42
  call void @llvm.lifetime.start.p0(i64 65, ptr %9) #8
  call void @llvm.memset.p0.i64(ptr align 16 %9, i8 0, i64 65, i1 false)
  store i32 0, ptr %3, align 4, !tbaa !12
  br label %13

13:                                               ; preds = %21, %1
  %14 = load i32, ptr %3, align 4, !tbaa !12
  %15 = load i32, ptr %6, align 4, !tbaa !12
  %16 = icmp slt i32 %14, %15
  br i1 %16, label %17, label %24

17:                                               ; preds = %13
  %18 = load i32, ptr %3, align 4, !tbaa !12
  %19 = sext i32 %18 to i64
  %20 = getelementptr inbounds [65 x i8], ptr %9, i64 0, i64 %19
  store i8 45, ptr %20, align 1, !tbaa !68
  br label %21

21:                                               ; preds = %17
  %22 = load i32, ptr %3, align 4, !tbaa !12
  %23 = add nsw i32 %22, 1
  store i32 %23, ptr %3, align 4, !tbaa !12
  br label %13, !llvm.loop !69

24:                                               ; preds = %13
  store i32 0, ptr %4, align 4, !tbaa !12
  br label %25

25:                                               ; preds = %68, %24
  %26 = load i32, ptr %4, align 4, !tbaa !12
  %27 = load ptr, ptr %2, align 8, !tbaa !10
  %28 = call i32 @Vec_IntSize(ptr noundef %27)
  %29 = icmp slt i32 %26, %28
  br i1 %29, label %30, label %34

30:                                               ; preds = %25
  %31 = load ptr, ptr %2, align 8, !tbaa !10
  %32 = load i32, ptr %4, align 4, !tbaa !12
  %33 = call i32 @Vec_IntEntry(ptr noundef %31, i32 noundef %32)
  store i32 %33, ptr %5, align 4, !tbaa !12
  br label %34

34:                                               ; preds = %30, %25
  %35 = phi i1 [ false, %25 ], [ true, %30 ]
  br i1 %35, label %36, label %71

36:                                               ; preds = %34
  %37 = load i32, ptr %5, align 4, !tbaa !12
  %38 = icmp eq i32 %37, -1
  br i1 %38, label %39, label %54

39:                                               ; preds = %36
  %40 = getelementptr inbounds [65 x i8], ptr %9, i64 0, i64 0
  %41 = call i32 (ptr, ...) @printf(ptr noundef @.str, ptr noundef %40)
  store i32 0, ptr %3, align 4, !tbaa !12
  br label %42

42:                                               ; preds = %50, %39
  %43 = load i32, ptr %3, align 4, !tbaa !12
  %44 = load i32, ptr %6, align 4, !tbaa !12
  %45 = icmp slt i32 %43, %44
  br i1 %45, label %46, label %53

46:                                               ; preds = %42
  %47 = load i32, ptr %3, align 4, !tbaa !12
  %48 = sext i32 %47 to i64
  %49 = getelementptr inbounds [65 x i8], ptr %9, i64 0, i64 %48
  store i8 45, ptr %49, align 1, !tbaa !68
  br label %50

50:                                               ; preds = %46
  %51 = load i32, ptr %3, align 4, !tbaa !12
  %52 = add nsw i32 %51, 1
  store i32 %52, ptr %3, align 4, !tbaa !12
  br label %42, !llvm.loop !70

53:                                               ; preds = %42
  br label %68

54:                                               ; preds = %36
  %55 = load i32, ptr %5, align 4, !tbaa !12
  %56 = call i32 @Abc_LitIsCompl(i32 noundef %55)
  %57 = trunc i32 %56 to i8
  %58 = sext i8 %57 to i32
  %59 = sub nsw i32 49, %58
  %60 = trunc i32 %59 to i8
  %61 = load i32, ptr %5, align 4, !tbaa !12
  %62 = call i32 @Abc_Lit2Var(i32 noundef %61)
  %63 = sext i32 %62 to i64
  %64 = getelementptr inbounds [64 x i32], ptr %7, i64 0, i64 %63
  %65 = load i32, ptr %64, align 4, !tbaa !12
  %66 = sext i32 %65 to i64
  %67 = getelementptr inbounds [65 x i8], ptr %9, i64 0, i64 %66
  store i8 %60, ptr %67, align 1, !tbaa !68
  br label %68

68:                                               ; preds = %54, %53
  %69 = load i32, ptr %4, align 4, !tbaa !12
  %70 = add nsw i32 %69, 1
  store i32 %70, ptr %4, align 4, !tbaa !12
  br label %25, !llvm.loop !71

71:                                               ; preds = %34
  store i64 0, ptr %8, align 8, !tbaa !42
  call void @llvm.lifetime.end.p0(i64 65, ptr %9) #8
  call void @llvm.lifetime.end.p0(i64 8, ptr %8) #8
  call void @llvm.lifetime.end.p0(i64 256, ptr %7) #8
  call void @llvm.lifetime.end.p0(i64 4, ptr %6) #8
  call void @llvm.lifetime.end.p0(i64 4, ptr %5) #8
  call void @llvm.lifetime.end.p0(i64 4, ptr %4) #8
  call void @llvm.lifetime.end.p0(i64 4, ptr %3) #8
  ret void
}