; Function Attrs: nofree nounwind uwtable
define void @Sbd_ManSolverPrint(ptr noundef readonly captures(none) %0) local_unnamed_addr #4 {
  %2 = alloca [64 x i32], align 16
  %3 = alloca [65 x i8], align 16
  call void @llvm.lifetime.start.p0(i64 256, ptr nonnull %2) #12
  %4 = getelementptr i8, ptr %0, i64 4
  %.val20.i = load i32, ptr %4, align 4, !tbaa !7
  %5 = icmp sgt i32 %.val20.i, 0
  br i1 %5, label %.lr.ph.i, label %.preheader.thread

.preheader.thread:                                ; preds = %1
  call void @llvm.lifetime.start.p0(i64 65, ptr nonnull %3) #12
  br label %.critedge

.lr.ph.i:                                         ; preds = %1
  %6 = getelementptr i8, ptr %0, i64 8
  %.val19.i = load ptr, ptr %6, align 8, !tbaa !11
  %7 = zext nneg i32 %.val20.i to i64
  br label %8

8:                                                ; preds = %22, %.lr.ph.i
  %indvars.iv.i = phi i64 [ 0, %.lr.ph.i ], [ %indvars.iv.next.i, %22 ]
  %.023.i = phi i32 [ 0, %.lr.ph.i ], [ %.1.i, %22 ]
  %.01522.i = phi i64 [ 0, %.lr.ph.i ], [ %.116.i, %22 ]
  %9 = getelementptr inbounds nuw i32, ptr %.val19.i, i64 %indvars.iv.i
  %10 = load i32, ptr %9, align 4, !tbaa !3
  %11 = icmp eq i32 %10, -1
  br i1 %11, label %22, label %12

12:                                               ; preds = %8
  %13 = ashr i32 %10, 1
  %14 = zext nneg i32 %13 to i64
  %15 = shl nuw i64 1, %14
  %16 = and i64 %15, %.01522.i
  %.not.i = icmp eq i64 %16, 0
  br i1 %.not.i, label %17, label %22

17:                                               ; preds = %12
  %18 = add i32 %.023.i, 1
  %19 = sext i32 %13 to i64
  %20 = getelementptr inbounds i32, ptr %2, i64 %19
  store i32 %.023.i, ptr %20, align 4, !tbaa !3
  %21 = or i64 %15, %.01522.i
  br label %22

22:                                               ; preds = %17, %12, %8
  %.116.i = phi i64 [ %.01522.i, %8 ], [ %.01522.i, %12 ], [ %21, %17 ]
  %.1.i = phi i32 [ %.023.i, %8 ], [ %.023.i, %12 ], [ %18, %17 ]
  %indvars.iv.next.i = add nuw nsw i64 %indvars.iv.i, 1
  %exitcond.not = icmp eq i64 %indvars.iv.next.i, %7
  br i1 %exitcond.not, label %Sbd_ManSolverSupp.exit, label %8, !llvm.loop !59

Sbd_ManSolverSupp.exit:                           ; preds = %22
  call void @llvm.lifetime.start.p0(i64 65, ptr nonnull %3) #12
  call void @llvm.memset.p0.i64(ptr noundef nonnull align 16 dereferenceable(65) %3, i8 0, i64 65, i1 false)
  %23 = icmp sgt i32 %.1.i, 0
  br i1 %23, label %.lr.ph.preheader, label %.lr.ph23

.lr.ph.preheader:                                 ; preds = %Sbd_ManSolverSupp.exit
  %24 = zext nneg i32 %.1.i to i64
  call void @llvm.memset.p0.i64(ptr nonnull align 16 %3, i8 45, i64 %24, i1 false), !tbaa !60
  br label %.lr.ph23

.lr.ph23:                                         ; preds = %Sbd_ManSolverSupp.exit, %.lr.ph.preheader
  %25 = getelementptr i8, ptr %0, i64 8
  br i1 %23, label %.lr.ph23.split.us.preheader, label %.lr.ph23.split

.lr.ph23.split.us.preheader:                      ; preds = %.lr.ph23
  %26 = zext nneg i32 %.1.i to i64
  br label %.lr.ph23.split.us

.lr.ph23.split.us:                                ; preds = %.lr.ph23.split.us.preheader, %..loopexit_crit_edge.us
  %.val.us35 = phi i32 [ %.val20.i, %.lr.ph23.split.us.preheader ], [ %.val.us, %..loopexit_crit_edge.us ]
  %indvars.iv30 = phi i64 [ 0, %.lr.ph23.split.us.preheader ], [ %indvars.iv.next31, %..loopexit_crit_edge.us ]
  %.val16.us = load ptr, ptr %25, align 8, !tbaa !11
  %27 = getelementptr inbounds nuw i32, ptr %.val16.us, i64 %indvars.iv30
  %28 = load i32, ptr %27, align 4, !tbaa !3
  %29 = icmp eq i32 %28, -1
  br i1 %29, label %.lr.ph20.us, label %30

30:                                               ; preds = %.lr.ph23.split.us
  %31 = trunc i32 %28 to i8
  %32 = and i8 %31, 1
  %33 = sub nuw nsw i8 49, %32
  %34 = ashr i32 %28, 1
  %35 = sext i32 %34 to i64
  %36 = getelementptr inbounds [64 x i32], ptr %2, i64 0, i64 %35
  %37 = load i32, ptr %36, align 4, !tbaa !3
  %38 = sext i32 %37 to i64
  %39 = getelementptr inbounds [65 x i8], ptr %3, i64 0, i64 %38
  store i8 %33, ptr %39, align 1, !tbaa !60
  br label %..loopexit_crit_edge.us

.lr.ph20.us:                                      ; preds = %.lr.ph23.split.us
  %puts.us = call i32 @puts(ptr nonnull dereferenceable(1) %3)
  call void @llvm.memset.p0.i64(ptr nonnull align 16 %3, i8 45, i64 %26, i1 false), !tbaa !60
  %.val.us.pre = load i32, ptr %4, align 4, !tbaa !7
  br label %..loopexit_crit_edge.us

..loopexit_crit_edge.us:                          ; preds = %.lr.ph20.us, %30
  %.val.us = phi i32 [ %.val.us.pre, %.lr.ph20.us ], [ %.val.us35, %30 ]
  %indvars.iv.next31 = add nuw nsw i64 %indvars.iv30, 1
  %40 = sext i32 %.val.us to i64
  %41 = icmp slt i64 %indvars.iv.next31, %40
  br i1 %41, label %.lr.ph23.split.us, label %.critedge, !llvm.loop !61

.lr.ph23.split:                                   ; preds = %.lr.ph23, %55
  %.val33 = phi i32 [ %.val, %55 ], [ %.val20.i, %.lr.ph23 ]
  %indvars.iv = phi i64 [ %indvars.iv.next, %55 ], [ 0, %.lr.ph23 ]
  %.val16 = load ptr, ptr %25, align 8, !tbaa !11
  %42 = getelementptr inbounds nuw i32, ptr %.val16, i64 %indvars.iv
  %43 = load i32, ptr %42, align 4, !tbaa !3
  %44 = icmp eq i32 %43, -1
  br i1 %44, label %.loopexit, label %45

.loopexit:                                        ; preds = %.lr.ph23.split
  %puts = call i32 @puts(ptr nonnull dereferenceable(1) %3)
  %.val.pre = load i32, ptr %4, align 4, !tbaa !7
  br label %55

45:                                               ; preds = %.lr.ph23.split
  %46 = trunc i32 %43 to i8
  %47 = and i8 %46, 1
  %48 = sub nuw nsw i8 49, %47
  %49 = ashr i32 %43, 1
  %50 = sext i32 %49 to i64
  %51 = getelementptr inbounds [64 x i32], ptr %2, i64 0, i64 %50
  %52 = load i32, ptr %51, align 4, !tbaa !3
  %53 = sext i32 %52 to i64
  %54 = getelementptr inbounds [65 x i8], ptr %3, i64 0, i64 %53
  store i8 %48, ptr %54, align 1, !tbaa !60
  br label %55

55:                                               ; preds = %.loopexit, %45
  %.val = phi i32 [ %.val.pre, %.loopexit ], [ %.val33, %45 ]
  %indvars.iv.next = add nuw nsw i64 %indvars.iv, 1
  %56 = sext i32 %.val to i64
  %57 = icmp slt i64 %indvars.iv.next, %56
  br i1 %57, label %.lr.ph23.split, label %.critedge, !llvm.loop !61

.critedge:                                        ; preds = %55, %..loopexit_crit_edge.us, %.preheader.thread
  call void @llvm.lifetime.end.p0(i64 65, ptr nonnull %3) #12
  call void @llvm.lifetime.end.p0(i64 256, ptr nonnull %2) #12
  ret void
}